(ikeras_frcnn.config
Config
p0
(dp1
S'use_vertical_flips'
p2
I00
sS'verbose'
p3
I01
sS'classifier_regr_std'
p4
(lp5
F8.0
aF8.0
aF4.0
aF4.0
asS'classifier_min_overlap'
p6
F0.1
sS'rot_90'
p7
I00
sS'class_mapping'
p8
(dp9
S'sheep'
p10
I11
sS'horse'
p11
I9
sS'bg'
p12
I20
sS'bicycle'
p13
I8
sS'motorbike'
p14
I15
sS'cow'
p15
I17
sS'sofa'
p16
I18
sS'bus'
p17
I6
sS'aeroplane'
p18
I16
sS'dog'
p19
I0
sS'cat'
p20
I19
sS'person'
p21
I2
sS'train'
p22
I14
sS'boat'
p23
I13
sS'bottle'
p24
I10
sS'car'
p25
I7
sS'pottedplant'
p26
I3
sS'tvmonitor'
p27
I4
sS'chair'
p28
I1
sS'bird'
p29
I5
sS'diningtable'
p30
I12
ssS'pascal_voc_year'
p31
(lp32
S'VOC2007'
p33
asS'use_horizontal_flips'
p34
I00
sS'rpn_max_overlap'
p35
F0.7
sS'network'
p36
S'resnet50'
p37
sS'img_channel_mean'
p38
(lp39
F103.939
aF116.779
aF123.68
asS'balanced_classes'
p40
I00
sS'anchor_box_ratios'
p41
(lp42
(lp43
I1
aI1
aa(lp44
F0.7071067811865475
aF1.414213562373095
aa(lp45
F1.414213562373095
aF0.7071067811865475
aasS'img_scaling_factor'
p46
F1.0
sS'train_path'
p47
S'/home/e813/dataset/VOCdevkit_2007_trainval'
p48
sS'rpn_stride'
p49
I16
sS'config_filepath'
p50
S'config.pickle'
p51
sS'input_weight_path'
p52
NsS'num_rois'
p53
I32
sS'base_net_weights'
p54
S'resnet50_weights_tf_dim_ordering_tf_kernels.h5'
p55
sS'anchor_box_scales'
p56
(lp57
I128
aI256
aI512
asS'rpn_min_overlap'
p58
F0.3
sS'model_path'
p59
S'/media/e813/D/weights/kerash5/frcnn/TST2/model_frcnn.vgg.hdf5'
p60
sS'classifier_max_overlap'
p61
F0.5
sS'std_scaling'
p62
F4.0
sS'im_size'
p63
I600
sS'output_weight_path'
p64
S'/media/e813/D/weights/kerash5/frcnn/tstVOC/model_frcnn.hdf5'
p65
sb.