(ikeras_frcnn.config
Config
p0
(dp1
S'use_vertical_flips'
p2
I00
sS'verbose'
p3
I01
sS'classifier_regr_std'
p4
(lp5
F8.0
aF8.0
aF4.0
aF4.0
asS'classifier_min_overlap'
p6
F0.1
sS'rot_90'
p7
I00
sS'num_epochs'
p8
I5
sS'class_mapping'
p9
(dp10
S'head'
p11
I0
sS'bg'
p12
I7
sS'back'
p13
I1
sS'tail'
p14
I4
sS'breast'
p15
I3
sS'legs'
p16
I6
sS'wings'
p17
I5
sS'belly'
p18
I2
ssS'pascal_voc_year'
p19
(lp20
S'VOC2007'
p21
asS'use_horizontal_flips'
p22
I00
sS'rpn_max_overlap'
p23
F0.7
sS'network'
p24
S'resnet50'
p25
sS'img_channel_mean'
p26
(lp27
F103.939
aF116.779
aF123.68
asS'parser'
p28
S'pascal_voc'
p29
sS'balanced_classes'
p30
I00
sS'anchor_box_ratios'
p31
(lp32
(lp33
I1
aI1
aa(lp34
F0.7071067811865475
aF1.414213562373095
aa(lp35
F1.414213562373095
aF0.7071067811865475
aasS'img_scaling_factor'
p36
F1.0
sS'train_path'
p37
S'/home/e813/dataset/VOCdevkit_2007_trainval'
p38
sS'rpn_stride'
p39
I16
sS'config_filepath'
p40
S'config.pickle'
p41
sS'input_weight_path'
p42
S'/media/e813/D/weights/kerash5/resnet50/resnet50_weights_tf_dim_ordering_tf_kernels.h5'
p43
sS'num_rois'
p44
I32
sS'base_net_weights'
p45
g43
sS'anchor_box_scales'
p46
(lp47
I128
aI256
aI512
asS'rpn_min_overlap'
p48
F0.3
sS'model_path'
p49
S'/media/e813/D/weights/kerash5/frcnn/TST2/model_frcnn.vgg.hdf5'
p50
sS'classifier_max_overlap'
p51
F0.5
sS'std_scaling'
p52
F4.0
sS'im_size'
p53
I600
sS'output_weight_path'
p54
S'/media/e813/D/weights/kerash5/frcnn/tstVOC/model_frcnn.hdf5'
p55
sb.